target datalayout = "e-m:e-p270:32:32-p271:32:32-p272:64:64-i64:64-i128:128-f80:128-n8:16:32:64-S128"
target triple = "x86_64-pc-linux-gnu"

%struct.jpeg_decompress_struct = type { ptr, ptr, ptr, ptr, i32, i32, ptr, i32, i32, i32, i32, i32, i32, i32, double, i32, i32, i32, i32, i32, i32, i32, i32, i32, i32, i32, i32, i32, i32, i32, i32, i32, i32, ptr, i32, i32, i32, i32, i32, ptr, [4 x ptr], [4 x ptr], [4 x ptr], i32, ptr, i32, i32, [16 x i8], [16 x i8], [16 x i8], i32, i32, i8, i8, i8, i16, i16, i32, i8, i32, ptr, i32, i32, i32, i32, ptr, i32, [4 x ptr], i32, i32, i32, [10 x i32], i32, i32, i32, i32, i32, ptr, ptr, ptr, ptr, ptr, ptr, ptr, ptr, ptr, ptr, ptr }
%struct.jpeg_marker_reader = type { ptr, ptr, ptr, i32, i32, i32, i32 }
%struct.jpeg_memory_mgr = type { ptr, ptr, ptr, ptr, ptr, ptr, ptr, ptr, ptr, ptr, ptr, i64, i64 }
%struct.my_marker_reader = type { %struct.jpeg_marker_reader, ptr, [16 x ptr], i32, [16 x i32], ptr, i32 }

; Function Attrs: nounwind uwtable
define internal void @reset_marker_reader(ptr noundef %0) #0 {
  %2 = alloca ptr, align 8
  %3 = alloca ptr, align 8
  store ptr %0, ptr %2, align 8
  %4 = load ptr, ptr %2, align 8
  %5 = getelementptr inbounds %struct.jpeg_decompress_struct, ptr %4, i32 0, i32 82
  %6 = load ptr, ptr %5, align 8
  store ptr %6, ptr %3, align 8
  %7 = load ptr, ptr %2, align 8
  %8 = getelementptr inbounds %struct.jpeg_decompress_struct, ptr %7, i32 0, i32 44
  store ptr null, ptr %8, align 8
  %9 = load ptr, ptr %2, align 8
  %10 = getelementptr inbounds %struct.jpeg_decompress_struct, ptr %9, i32 0, i32 35
  store i32 0, ptr %10, align 4
  %11 = load ptr, ptr %2, align 8
  %12 = getelementptr inbounds %struct.jpeg_decompress_struct, ptr %11, i32 0, i32 76
  store i32 0, ptr %12, align 4
  %13 = load ptr, ptr %3, align 8
  %14 = getelementptr inbounds %struct.my_marker_reader, ptr %13, i32 0, i32 0
  %15 = getelementptr inbounds %struct.jpeg_marker_reader, ptr %14, i32 0, i32 3
  store i32 0, ptr %15, align 8
  %16 = load ptr, ptr %3, align 8
  %17 = getelementptr inbounds %struct.my_marker_reader, ptr %16, i32 0, i32 0
  %18 = getelementptr inbounds %struct.jpeg_marker_reader, ptr %17, i32 0, i32 4
  store i32 0, ptr %18, align 4
  %19 = load ptr, ptr %3, align 8
  %20 = getelementptr inbounds %struct.my_marker_reader, ptr %19, i32 0, i32 0
  %21 = getelementptr inbounds %struct.jpeg_marker_reader, ptr %20, i32 0, i32 6
  store i32 0, ptr %21, align 4
  %22 = load ptr, ptr %3, align 8
  %23 = getelementptr inbounds %struct.my_marker_reader, ptr %22, i32 0, i32 5
  store ptr null, ptr %23, align 8
  ret void
}

; Function Attrs: nounwind uwtable
define hidden void @jIMReader(ptr noundef %0) #0 {
  %2 = alloca ptr, align 8
  %3 = alloca ptr, align 8
  %4 = alloca i32, align 4
  store ptr %0, ptr %2, align 8
  %5 = load ptr, ptr %2, align 8
  %6 = getelementptr inbounds %struct.jpeg_decompress_struct, ptr %5, i32 0, i32 1
  %7 = load ptr, ptr %6, align 8
  %8 = getelementptr inbounds %struct.jpeg_memory_mgr, ptr %7, i32 0, i32 0
  %9 = load ptr, ptr %8, align 8
  %10 = load ptr, ptr %2, align 8
  %11 = call ptr %9(ptr noundef %10, i32 noundef 0, i64 noundef 264)
  store ptr %11, ptr %3, align 8
  %12 = load ptr, ptr %3, align 8
  %13 = load ptr, ptr %2, align 8
  %14 = getelementptr inbounds %struct.jpeg_decompress_struct, ptr %13, i32 0, i32 82
  store ptr %12, ptr %14, align 8
  %15 = load ptr, ptr %3, align 8
  %16 = getelementptr inbounds %struct.my_marker_reader, ptr %15, i32 0, i32 0
  %17 = getelementptr inbounds %struct.jpeg_marker_reader, ptr %16, i32 0, i32 0
  store ptr @reset_marker_reader, ptr %17, align 8
  %18 = load ptr, ptr %3, align 8
  %19 = getelementptr inbounds %struct.my_marker_reader, ptr %18, i32 0, i32 0
  %20 = getelementptr inbounds %struct.jpeg_marker_reader, ptr %19, i32 0, i32 1
  store ptr @read_markers, ptr %20, align 8
  %21 = load ptr, ptr %3, align 8
  %22 = getelementptr inbounds %struct.my_marker_reader, ptr %21, i32 0, i32 0
  %23 = getelementptr inbounds %struct.jpeg_marker_reader, ptr %22, i32 0, i32 2
  store ptr @read_restart_marker, ptr %23, align 8
  %24 = load ptr, ptr %3, align 8
  %25 = getelementptr inbounds %struct.my_marker_reader, ptr %24, i32 0, i32 1
  store ptr @skip_variable, ptr %25, align 8
  %26 = load ptr, ptr %3, align 8
  %27 = getelementptr inbounds %struct.my_marker_reader, ptr %26, i32 0, i32 3
  store i32 0, ptr %27, align 8
  store i32 0, ptr %4, align 4
  br label %28

28:                                               ; preds = %42, %1
  %29 = load i32, ptr %4, align 4
  %30 = icmp slt i32 %29, 16
  br i1 %30, label %31, label %45

31:                                               ; preds = %28
  %32 = load ptr, ptr %3, align 8
  %33 = getelementptr inbounds %struct.my_marker_reader, ptr %32, i32 0, i32 2
  %34 = load i32, ptr %4, align 4
  %35 = sext i32 %34 to i64
  %36 = getelementptr inbounds [16 x ptr], ptr %33, i64 0, i64 %35
  store ptr @skip_variable, ptr %36, align 8
  %37 = load ptr, ptr %3, align 8
  %38 = getelementptr inbounds %struct.my_marker_reader, ptr %37, i32 0, i32 4
  %39 = load i32, ptr %4, align 4
  %40 = sext i32 %39 to i64
  %41 = getelementptr inbounds [16 x i32], ptr %38, i64 0, i64 %40
  store i32 0, ptr %41, align 4
  br label %42

42:                                               ; preds = %31
  %43 = load i32, ptr %4, align 4
  %44 = add nsw i32 %43, 1
  store i32 %44, ptr %4, align 4
  br label %28, !llvm.loop !9

45:                                               ; preds = %28
  %46 = load ptr, ptr %3, align 8
  %47 = getelementptr inbounds %struct.my_marker_reader, ptr %46, i32 0, i32 2
  %48 = getelementptr inbounds [16 x ptr], ptr %47, i64 0, i64 0
  store ptr @get_interesting_appn, ptr %48, align 8
  %49 = load ptr, ptr %3, align 8
  %50 = getelementptr inbounds %struct.my_marker_reader, ptr %49, i32 0, i32 2
  %51 = getelementptr inbounds [16 x ptr], ptr %50, i64 0, i64 1
  store ptr @save_marker, ptr %51, align 8
  %52 = load ptr, ptr %3, align 8
  %53 = getelementptr inbounds %struct.my_marker_reader, ptr %52, i32 0, i32 2
  %54 = getelementptr inbounds [16 x ptr], ptr %53, i64 0, i64 14
  store ptr @get_interesting_appn, ptr %54, align 8
  %55 = load ptr, ptr %2, align 8
  call void @reset_marker_reader(ptr noundef %55)
  ret void
}