; Function Attrs: nounwind uwtable
define hidden void @jIMReader(ptr noundef %0) local_unnamed_addr #0 {
  %2 = getelementptr inbounds i8, ptr %0, i64 8
  %3 = load ptr, ptr %2, align 8
  %4 = load ptr, ptr %3, align 8
  %5 = tail call ptr %4(ptr noundef %0, i32 noundef 0, i64 noundef 264) #7
  %6 = getelementptr inbounds i8, ptr %0, i64 584
  store ptr %5, ptr %6, align 8
  store ptr @reset_marker_reader, ptr %5, align 8
  %7 = getelementptr inbounds i8, ptr %5, i64 8
  store ptr @read_markers, ptr %7, align 8
  %8 = getelementptr inbounds i8, ptr %5, i64 16
  store ptr @read_restart_marker, ptr %8, align 8
  %9 = getelementptr inbounds i8, ptr %5, i64 40
  store ptr @skip_variable, ptr %9, align 8
  %10 = getelementptr inbounds i8, ptr %5, i64 176
  store i32 0, ptr %10, align 8
  %11 = getelementptr inbounds i8, ptr %5, i64 48
  %12 = getelementptr inbounds i8, ptr %5, i64 180
  br label %13

13:                                               ; preds = %1, %13
  %indvars.iv = phi i64 [ 0, %1 ], [ %indvars.iv.next, %13 ]
  %14 = getelementptr inbounds [16 x ptr], ptr %11, i64 0, i64 %indvars.iv
  store ptr @skip_variable, ptr %14, align 8
  %15 = getelementptr inbounds [16 x i32], ptr %12, i64 0, i64 %indvars.iv
  store i32 0, ptr %15, align 4
  %indvars.iv.next = add nuw nsw i64 %indvars.iv, 1
  %exitcond.not = icmp eq i64 %indvars.iv.next, 16
  br i1 %exitcond.not, label %16, label %13, !llvm.loop !8

16:                                               ; preds = %13
  store ptr @get_interesting_appn, ptr %11, align 8
  %17 = getelementptr inbounds i8, ptr %5, i64 56
  store ptr @save_marker, ptr %17, align 8
  %18 = getelementptr inbounds i8, ptr %5, i64 160
  store ptr @get_interesting_appn, ptr %18, align 8
  %19 = load ptr, ptr %6, align 8
  %20 = getelementptr inbounds i8, ptr %0, i64 304
  store ptr null, ptr %20, align 8
  %21 = getelementptr inbounds i8, ptr %0, i64 172
  store i32 0, ptr %21, align 4
  %22 = getelementptr inbounds i8, ptr %0, i64 540
  store i32 0, ptr %22, align 4
  %23 = getelementptr inbounds i8, ptr %19, i64 24
  store i32 0, ptr %23, align 8
  %24 = getelementptr inbounds i8, ptr %19, i64 28
  store i32 0, ptr %24, align 4
  %25 = getelementptr inbounds i8, ptr %19, i64 36
  store i32 0, ptr %25, align 4
  %26 = getelementptr inbounds i8, ptr %19, i64 248
  store ptr null, ptr %26, align 8
  ret void
}